; Function Attrs: mustprogress uwtable
define void @_ZN15IOConsoleDialog11setHintTextERK7QString(ptr nocapture noundef nonnull readonly align 8 dereferenceable(104) %0, ptr noundef nonnull align 8 dereferenceable(24) %1) local_unnamed_addr #0 align 2 personality ptr @__gxx_personality_v0 {
  %3 = alloca %class.QString, align 16
  %4 = alloca %class.QString, align 8
  %5 = alloca %class.QString, align 16
  %6 = getelementptr inbounds i8, ptr %0, i64 64
  %7 = load ptr, ptr %6, align 8
  %8 = getelementptr inbounds i8, ptr %7, i64 40
  %9 = load ptr, ptr %8, align 8
  call void @llvm.lifetime.start.p0(i64 24, ptr nonnull %3)
  call void @_ZN7QString8fromUtf8E14QByteArrayView(ptr dead_on_unwind nonnull writable sret(%class.QString) align 8 %3, i64 25, ptr nonnull @.str.5)
  %10 = load <2 x ptr>, ptr %3, align 16
  store <2 x ptr> %10, ptr %5, align 16
  %11 = getelementptr inbounds i8, ptr %5, i64 16
  %12 = getelementptr inbounds i8, ptr %3, i64 16
  %13 = load i64, ptr %12, align 16
  store i64 %13, ptr %11, align 16
  call void @llvm.lifetime.end.p0(i64 24, ptr nonnull %3)
  invoke void @_ZNK7QString3argERKS_i5QChar(ptr dead_on_unwind nonnull writable sret(%class.QString) align 8 %4, ptr noundef nonnull align 8 dereferenceable(24) %5, ptr noundef nonnull align 8 dereferenceable(24) %1, i32 noundef 0, i16 32)
          to label %14 unwind label %24

14:                                               ; preds = %2
  invoke void @_ZN6QLabel7setTextERK7QString(ptr noundef nonnull align 8 dereferenceable(40) %9, ptr noundef nonnull align 8 dereferenceable(24) %4)
          to label %15 unwind label %26

15:                                               ; preds = %14
  %16 = load ptr, ptr %4, align 8
  %.not.i.i.i = icmp eq ptr %16, null
  br i1 %.not.i.i.i, label %_ZN7QStringD2Ev.exit, label %_ZN17QArrayDataPointerIDsE5derefEv.exit.i.i

_ZN17QArrayDataPointerIDsE5derefEv.exit.i.i:      ; preds = %15
  %17 = atomicrmw sub ptr %16, i32 1 seq_cst, align 4
  %.not.i.i = icmp eq i32 %17, 1
  br i1 %.not.i.i, label %18, label %_ZN7QStringD2Ev.exit

18:                                               ; preds = %_ZN17QArrayDataPointerIDsE5derefEv.exit.i.i
  %19 = load ptr, ptr %4, align 8
  call void @_ZN10QArrayData10deallocateEPS_xx(ptr noundef %19, i64 noundef 2, i64 noundef 8) #17
  br label %_ZN7QStringD2Ev.exit

_ZN7QStringD2Ev.exit:                             ; preds = %15, %_ZN17QArrayDataPointerIDsE5derefEv.exit.i.i, %18
  %20 = load ptr, ptr %5, align 16
  %.not.i.i.i5 = icmp eq ptr %20, null
  br i1 %.not.i.i.i5, label %_ZN7QStringD2Ev.exit8, label %_ZN17QArrayDataPointerIDsE5derefEv.exit.i.i6

_ZN17QArrayDataPointerIDsE5derefEv.exit.i.i6:     ; preds = %_ZN7QStringD2Ev.exit
  %21 = atomicrmw sub ptr %20, i32 1 seq_cst, align 4
  %.not.i.i7 = icmp eq i32 %21, 1
  br i1 %.not.i.i7, label %22, label %_ZN7QStringD2Ev.exit8

22:                                               ; preds = %_ZN17QArrayDataPointerIDsE5derefEv.exit.i.i6
  %23 = load ptr, ptr %5, align 16
  call void @_ZN10QArrayData10deallocateEPS_xx(ptr noundef %23, i64 noundef 2, i64 noundef 8) #17
  br label %_ZN7QStringD2Ev.exit8

_ZN7QStringD2Ev.exit8:                            ; preds = %_ZN7QStringD2Ev.exit, %_ZN17QArrayDataPointerIDsE5derefEv.exit.i.i6, %22
  ret void

24:                                               ; preds = %2
  %25 = landingpad { ptr, i32 }
          cleanup
  br label %_ZN7QStringD2Ev.exit12

26:                                               ; preds = %14
  %27 = landingpad { ptr, i32 }
          cleanup
  %28 = load ptr, ptr %4, align 8
  %.not.i.i.i9 = icmp eq ptr %28, null
  br i1 %.not.i.i.i9, label %_ZN7QStringD2Ev.exit12, label %_ZN17QArrayDataPointerIDsE5derefEv.exit.i.i10

_ZN17QArrayDataPointerIDsE5derefEv.exit.i.i10:    ; preds = %26
  %29 = atomicrmw sub ptr %28, i32 1 seq_cst, align 4
  %.not.i.i11 = icmp eq i32 %29, 1
  br i1 %.not.i.i11, label %30, label %_ZN7QStringD2Ev.exit12

30:                                               ; preds = %_ZN17QArrayDataPointerIDsE5derefEv.exit.i.i10
  %31 = load ptr, ptr %4, align 8
  call void @_ZN10QArrayData10deallocateEPS_xx(ptr noundef %31, i64 noundef 2, i64 noundef 8) #17
  br label %_ZN7QStringD2Ev.exit12

_ZN7QStringD2Ev.exit12:                           ; preds = %30, %_ZN17QArrayDataPointerIDsE5derefEv.exit.i.i10, %26, %24
  %.pn = phi { ptr, i32 } [ %25, %24 ], [ %27, %26 ], [ %27, %_ZN17QArrayDataPointerIDsE5derefEv.exit.i.i10 ], [ %27, %30 ]
  %32 = load ptr, ptr %5, align 16
  %.not.i.i.i13 = icmp eq ptr %32, null
  br i1 %.not.i.i.i13, label %_ZN7QStringD2Ev.exit16, label %_ZN17QArrayDataPointerIDsE5derefEv.exit.i.i14

_ZN17QArrayDataPointerIDsE5derefEv.exit.i.i14:    ; preds = %_ZN7QStringD2Ev.exit12
  %33 = atomicrmw sub ptr %32, i32 1 seq_cst, align 4
  %.not.i.i15 = icmp eq i32 %33, 1
  br i1 %.not.i.i15, label %34, label %_ZN7QStringD2Ev.exit16

34:                                               ; preds = %_ZN17QArrayDataPointerIDsE5derefEv.exit.i.i14
  %35 = load ptr, ptr %5, align 16
  call void @_ZN10QArrayData10deallocateEPS_xx(ptr noundef %35, i64 noundef 2, i64 noundef 8) #17
  br label %_ZN7QStringD2Ev.exit16

_ZN7QStringD2Ev.exit16:                           ; preds = %_ZN7QStringD2Ev.exit12, %_ZN17QArrayDataPointerIDsE5derefEv.exit.i.i14, %34
  resume { ptr, i32 } %.pn
}